; ModuleID = '4/331.c'
source_filename = "4/331.c"
target datalayout = "e-m:e-p270:32:32-p271:32:32-p272:64:64-i64:64-f80:128-n8:16:32:64-S128"
target triple = "x86_64-pc-linux-gnu"

@.str = private unnamed_addr constant [5 x i8] c"%d%d\00", align 1
@.str.1 = private unnamed_addr constant [3 x i8] c"%d\00", align 1
@.str.2 = private unnamed_addr constant [4 x i8] c"%d\0A\00", align 1

; Function Attrs: noinline nounwind uwtable
define dso_local i32 @main() #0 {
  %1 = alloca i32, align 4
  %2 = alloca i32, align 4
  %3 = alloca i32, align 4
  %4 = alloca i32, align 4
  %5 = alloca i32, align 4
  %6 = alloca i32, align 4
  %7 = alloca i32, align 4
  %8 = alloca i32, align 4
  %9 = alloca [100 x [100 x i32]], align 16
  store i32 0, i32* %1, align 4
  %10 = call i32 (i8*, ...) @__isoc99_scanf(i8* getelementptr inbounds ([5 x i8], [5 x i8]* @.str, i64 0, i64 0), i32* %2, i32* %3)
  store i32 0, i32* %4, align 4
  br label %11

11:                                               ; preds = %34, %0
  %12 = load i32, i32* %4, align 4
  %13 = load i32, i32* %2, align 4
  %14 = sub nsw i32 %13, 1
  %15 = icmp sle i32 %12, %14
  br i1 %15, label %16, label %37

16:                                               ; preds = %11
  store i32 0, i32* %5, align 4
  br label %17

17:                                               ; preds = %30, %16
  %18 = load i32, i32* %5, align 4
  %19 = load i32, i32* %3, align 4
  %20 = sub nsw i32 %19, 1
  %21 = icmp sle i32 %18, %20
  br i1 %21, label %22, label %33

22:                                               ; preds = %17
  %23 = load i32, i32* %4, align 4
  %24 = sext i32 %23 to i64
  %25 = getelementptr inbounds [100 x [100 x i32]], [100 x [100 x i32]]* %9, i64 0, i64 %24
  %26 = load i32, i32* %5, align 4
  %27 = sext i32 %26 to i64
  %28 = getelementptr inbounds [100 x i32], [100 x i32]* %25, i64 0, i64 %27
  %29 = call i32 (i8*, ...) @__isoc99_scanf(i8* getelementptr inbounds ([3 x i8], [3 x i8]* @.str.1, i64 0, i64 0), i32* %28)
  br label %30

30:                                               ; preds = %22
  %31 = load i32, i32* %5, align 4
  %32 = add nsw i32 %31, 1
  store i32 %32, i32* %5, align 4
  br label %17

33:                                               ; preds = %17
  br label %34

34:                                               ; preds = %33
  %35 = load i32, i32* %4, align 4
  %36 = add nsw i32 %35, 1
  store i32 %36, i32* %4, align 4
  br label %11

37:                                               ; preds = %11
  store i32 0, i32* %6, align 4
  br label %38

38:                                               ; preds = %158, %37
  %39 = load i32, i32* %6, align 4
  %40 = load i32, i32* %2, align 4
  %41 = load i32, i32* %3, align 4
  %42 = add nsw i32 %40, %41
  %43 = sub nsw i32 %42, 2
  %44 = icmp sle i32 %39, %43
  br i1 %44, label %45, label %161

45:                                               ; preds = %38
  %46 = load i32, i32* %6, align 4
  %47 = load i32, i32* %2, align 4
  %48 = icmp slt i32 %46, %47
  br i1 %48, label %49, label %73

49:                                               ; preds = %45
  %50 = load i32, i32* %6, align 4
  %51 = load i32, i32* %3, align 4
  %52 = icmp slt i32 %50, %51
  br i1 %52, label %53, label %73

53:                                               ; preds = %49
  store i32 0, i32* %4, align 4
  br label %54

54:                                               ; preds = %69, %53
  %55 = load i32, i32* %4, align 4
  %56 = load i32, i32* %6, align 4
  %57 = icmp sle i32 %55, %56
  br i1 %57, label %58, label %72

58:                                               ; preds = %54
  %59 = load i32, i32* %4, align 4
  %60 = sext i32 %59 to i64
  %61 = getelementptr inbounds [100 x [100 x i32]], [100 x [100 x i32]]* %9, i64 0, i64 %60
  %62 = load i32, i32* %6, align 4
  %63 = load i32, i32* %4, align 4
  %64 = sub nsw i32 %62, %63
  %65 = sext i32 %64 to i64
  %66 = getelementptr inbounds [100 x i32], [100 x i32]* %61, i64 0, i64 %65
  %67 = load i32, i32* %66, align 4
  %68 = call i32 (i8*, ...) @printf(i8* getelementptr inbounds ([4 x i8], [4 x i8]* @.str.2, i64 0, i64 0), i32 %67)
  br label %69

69:                                               ; preds = %58
  %70 = load i32, i32* %4, align 4
  %71 = add nsw i32 %70, 1
  store i32 %71, i32* %4, align 4
  br label %54

72:                                               ; preds = %54
  br label %157

73:                                               ; preds = %49, %45
  %74 = load i32, i32* %6, align 4
  %75 = load i32, i32* %2, align 4
  %76 = icmp sge i32 %74, %75
  br i1 %76, label %77, label %106

77:                                               ; preds = %73
  %78 = load i32, i32* %6, align 4
  %79 = load i32, i32* %3, align 4
  %80 = icmp sge i32 %78, %79
  br i1 %80, label %81, label %106

81:                                               ; preds = %77
  %82 = load i32, i32* %6, align 4
  %83 = load i32, i32* %3, align 4
  %84 = sub nsw i32 %82, %83
  %85 = add nsw i32 %84, 1
  store i32 %85, i32* %4, align 4
  br label %86

86:                                               ; preds = %102, %81
  %87 = load i32, i32* %4, align 4
  %88 = load i32, i32* %2, align 4
  %89 = sub nsw i32 %88, 1
  %90 = icmp sle i32 %87, %89
  br i1 %90, label %91, label %105

91:                                               ; preds = %86
  %92 = load i32, i32* %4, align 4
  %93 = sext i32 %92 to i64
  %94 = getelementptr inbounds [100 x [100 x i32]], [100 x [100 x i32]]* %9, i64 0, i64 %93
  %95 = load i32, i32* %6, align 4
  %96 = load i32, i32* %4, align 4
  %97 = sub nsw i32 %95, %96
  %98 = sext i32 %97 to i64
  %99 = getelementptr inbounds [100 x i32], [100 x i32]* %94, i64 0, i64 %98
  %100 = load i32, i32* %99, align 4
  %101 = call i32 (i8*, ...) @printf(i8* getelementptr inbounds ([4 x i8], [4 x i8]* @.str.2, i64 0, i64 0), i32 %100)
  br label %102

102:                                              ; preds = %91
  %103 = load i32, i32* %4, align 4
  %104 = add nsw i32 %103, 1
  store i32 %104, i32* %4, align 4
  br label %86

105:                                              ; preds = %86
  br label %156

106:                                              ; preds = %77, %73
  %107 = load i32, i32* %2, align 4
  %108 = load i32, i32* %3, align 4
  %109 = icmp slt i32 %107, %108
  br i1 %109, label %110, label %131

110:                                              ; preds = %106
  store i32 0, i32* %4, align 4
  br label %111

111:                                              ; preds = %127, %110
  %112 = load i32, i32* %4, align 4
  %113 = load i32, i32* %2, align 4
  %114 = sub nsw i32 %113, 1
  %115 = icmp sle i32 %112, %114
  br i1 %115, label %116, label %130

116:                                              ; preds = %111
  %117 = load i32, i32* %4, align 4
  %118 = sext i32 %117 to i64
  %119 = getelementptr inbounds [100 x [100 x i32]], [100 x [100 x i32]]* %9, i64 0, i64 %118
  %120 = load i32, i32* %6, align 4
  %121 = load i32, i32* %4, align 4
  %122 = sub nsw i32 %120, %121
  %123 = sext i32 %122 to i64
  %124 = getelementptr inbounds [100 x i32], [100 x i32]* %119, i64 0, i64 %123
  %125 = load i32, i32* %124, align 4
  %126 = call i32 (i8*, ...) @printf(i8* getelementptr inbounds ([4 x i8], [4 x i8]* @.str.2, i64 0, i64 0), i32 %125)
  br label %127

127:                                              ; preds = %116
  %128 = load i32, i32* %4, align 4
  %129 = add nsw i32 %128, 1
  store i32 %129, i32* %4, align 4
  br label %111

130:                                              ; preds = %111
  br label %155

131:                                              ; preds = %106
  %132 = load i32, i32* %6, align 4
  %133 = load i32, i32* %3, align 4
  %134 = sub nsw i32 %132, %133
  %135 = add nsw i32 %134, 1
  store i32 %135, i32* %4, align 4
  br label %136

136:                                              ; preds = %151, %131
  %137 = load i32, i32* %4, align 4
  %138 = load i32, i32* %6, align 4
  %139 = icmp sle i32 %137, %138
  br i1 %139, label %140, label %154

140:                                              ; preds = %136
  %141 = load i32, i32* %4, align 4
  %142 = sext i32 %141 to i64
  %143 = getelementptr inbounds [100 x [100 x i32]], [100 x [100 x i32]]* %9, i64 0, i64 %142
  %144 = load i32, i32* %6, align 4
  %145 = load i32, i32* %4, align 4
  %146 = sub nsw i32 %144, %145
  %147 = sext i32 %146 to i64
  %148 = getelementptr inbounds [100 x i32], [100 x i32]* %143, i64 0, i64 %147
  %149 = load i32, i32* %148, align 4
  %150 = call i32 (i8*, ...) @printf(i8* getelementptr inbounds ([4 x i8], [4 x i8]* @.str.2, i64 0, i64 0), i32 %149)
  br label %151

151:                                              ; preds = %140
  %152 = load i32, i32* %4, align 4
  %153 = add nsw i32 %152, 1
  store i32 %153, i32* %4, align 4
  br label %136

154:                                              ; preds = %136
  br label %155

155:                                              ; preds = %154, %130
  br label %156

156:                                              ; preds = %155, %105
  br label %157

157:                                              ; preds = %156, %72
  br label %158

158:                                              ; preds = %157
  %159 = load i32, i32* %6, align 4
  %160 = add nsw i32 %159, 1
  store i32 %160, i32* %6, align 4
  br label %38

161:                                              ; preds = %38
  ret i32 0
}

declare dso_local i32 @__isoc99_scanf(i8*, ...) #1

declare dso_local i32 @printf(i8*, ...) #1


!llvm.module.flags = !{!0}
!llvm.ident = !{!1}

!0 = !{i32 1, !"wchar_size", i32 4}
!1 = !{!"clang version 10.0.0-4ubuntu1 "}
