; ModuleID = 'source-C-CXX/3/331.c'
source_filename = "source-C-CXX/3/331.c"
target datalayout = "e-m:e-p270:32:32-p271:32:32-p272:64:64-i64:64-f80:128-n8:16:32:64-S128"
target triple = "x86_64-pc-linux-gnu"

@.str = private unnamed_addr constant [5 x i8] c"%d%d\00", align 1
@.str.1 = private unnamed_addr constant [3 x i8] c"%d\00", align 1
@.str.2 = private unnamed_addr constant [4 x i8] c"%d\0A\00", align 1

; Function Attrs: nofree nounwind sspstrong uwtable
define dso_local i32 @main() local_unnamed_addr #0 {
  %1 = alloca i32, align 4
  %2 = alloca i32, align 4
  %3 = alloca [100 x [100 x i32]], align 16
  %4 = bitcast i32* %1 to i8*
  call void @llvm.lifetime.start.p0i8(i64 4, i8* nonnull %4) #3
  %5 = bitcast i32* %2 to i8*
  call void @llvm.lifetime.start.p0i8(i64 4, i8* nonnull %5) #3
  %6 = bitcast [100 x [100 x i32]]* %3 to i8*
  call void @llvm.lifetime.start.p0i8(i64 40000, i8* nonnull %6) #3
  %7 = call i32 (i8*, ...) @__isoc99_scanf(i8* getelementptr inbounds ([5 x i8], [5 x i8]* @.str, i64 0, i64 0), i32* nonnull %1, i32* nonnull %2)
  %8 = load i32, i32* %1, align 4, !tbaa !5
  %9 = icmp sgt i32 %8, 0
  %10 = load i32, i32* %2, align 4, !tbaa !5
  %11 = icmp sgt i32 %10, 0
  %12 = select i1 %9, i1 %11, i1 false
  br i1 %12, label %13, label %18

13:                                               ; preds = %0, %34
  %14 = phi i32 [ %35, %34 ], [ %8, %0 ]
  %15 = phi i32 [ %36, %34 ], [ %10, %0 ]
  %16 = phi i64 [ %37, %34 ], [ 0, %0 ]
  %17 = icmp sgt i32 %15, 0
  br i1 %17, label %24, label %34

18:                                               ; preds = %34, %0
  %19 = phi i32 [ %10, %0 ], [ %36, %34 ]
  %20 = phi i32 [ %8, %0 ], [ %35, %34 ]
  %21 = add i32 %20, -2
  %22 = add i32 %21, %19
  %23 = icmp slt i32 %22, 0
  br i1 %23, label %118, label %40

24:                                               ; preds = %13, %24
  %25 = phi i64 [ %28, %24 ], [ 0, %13 ]
  %26 = getelementptr inbounds [100 x [100 x i32]], [100 x [100 x i32]]* %3, i64 0, i64 %16, i64 %25
  %27 = call i32 (i8*, ...) @__isoc99_scanf(i8* getelementptr inbounds ([3 x i8], [3 x i8]* @.str.1, i64 0, i64 0), i32* nonnull %26)
  %28 = add nuw nsw i64 %25, 1
  %29 = load i32, i32* %2, align 4, !tbaa !5
  %30 = sext i32 %29 to i64
  %31 = icmp slt i64 %28, %30
  br i1 %31, label %24, label %32, !llvm.loop !9

32:                                               ; preds = %24
  %33 = load i32, i32* %1, align 4, !tbaa !5
  br label %34

34:                                               ; preds = %32, %13
  %35 = phi i32 [ %33, %32 ], [ %14, %13 ]
  %36 = phi i32 [ %29, %32 ], [ %15, %13 ]
  %37 = add nuw nsw i64 %16, 1
  %38 = sext i32 %35 to i64
  %39 = icmp slt i64 %37, %38
  br i1 %39, label %13, label %18, !llvm.loop !11

40:                                               ; preds = %18, %108
  %41 = phi i64 [ %109, %108 ], [ 0, %18 ]
  %42 = phi i64 [ %117, %108 ], [ 1, %18 ]
  %43 = phi i32 [ %112, %108 ], [ %19, %18 ]
  %44 = phi i32 [ %111, %108 ], [ %20, %18 ]
  %45 = phi i32 [ %110, %108 ], [ 0, %18 ]
  %46 = sext i32 %44 to i64
  %47 = icmp slt i64 %41, %46
  %48 = sext i32 %43 to i64
  %49 = icmp slt i64 %41, %48
  %50 = select i1 %47, i1 %49, i1 false
  br i1 %50, label %51, label %59

51:                                               ; preds = %40, %51
  %52 = phi i64 [ %57, %51 ], [ 0, %40 ]
  %53 = sub nsw i64 %41, %52
  %54 = getelementptr inbounds [100 x [100 x i32]], [100 x [100 x i32]]* %3, i64 0, i64 %52, i64 %53
  %55 = load i32, i32* %54, align 4, !tbaa !5
  %56 = call i32 (i8*, ...) @printf(i8* nonnull dereferenceable(1) getelementptr inbounds ([4 x i8], [4 x i8]* @.str.2, i64 0, i64 0), i32 %55)
  %57 = add nuw nsw i64 %52, 1
  %58 = icmp eq i64 %57, %42
  br i1 %58, label %108, label %51, !llvm.loop !13

59:                                               ; preds = %40
  %60 = select i1 %47, i1 true, i1 %49
  br i1 %60, label %80, label %61

61:                                               ; preds = %59
  %62 = sub nsw i32 %45, %43
  %63 = add nsw i32 %44, -1
  %64 = icmp slt i32 %62, %63
  br i1 %64, label %65, label %108

65:                                               ; preds = %61
  %66 = trunc i64 %41 to i32
  %67 = sub i32 %66, %43
  %68 = sext i32 %67 to i64
  br label %69

69:                                               ; preds = %65, %69
  %70 = phi i64 [ %68, %65 ], [ %71, %69 ]
  %71 = add nsw i64 %70, 1
  %72 = sub nsw i64 %41, %71
  %73 = getelementptr inbounds [100 x [100 x i32]], [100 x [100 x i32]]* %3, i64 0, i64 %71, i64 %72
  %74 = load i32, i32* %73, align 4, !tbaa !5
  %75 = call i32 (i8*, ...) @printf(i8* nonnull dereferenceable(1) getelementptr inbounds ([4 x i8], [4 x i8]* @.str.2, i64 0, i64 0), i32 %74)
  %76 = load i32, i32* %1, align 4, !tbaa !5
  %77 = add nsw i32 %76, -1
  %78 = sext i32 %77 to i64
  %79 = icmp slt i64 %71, %78
  br i1 %79, label %69, label %108, !llvm.loop !14

80:                                               ; preds = %59
  %81 = icmp slt i32 %44, %43
  br i1 %81, label %82, label %94

82:                                               ; preds = %80
  %83 = icmp sgt i32 %44, 0
  br i1 %83, label %84, label %108

84:                                               ; preds = %82, %84
  %85 = phi i64 [ %90, %84 ], [ 0, %82 ]
  %86 = sub nsw i64 %41, %85
  %87 = getelementptr inbounds [100 x [100 x i32]], [100 x [100 x i32]]* %3, i64 0, i64 %85, i64 %86
  %88 = load i32, i32* %87, align 4, !tbaa !5
  %89 = call i32 (i8*, ...) @printf(i8* nonnull dereferenceable(1) getelementptr inbounds ([4 x i8], [4 x i8]* @.str.2, i64 0, i64 0), i32 %88)
  %90 = add nuw nsw i64 %85, 1
  %91 = load i32, i32* %1, align 4, !tbaa !5
  %92 = sext i32 %91 to i64
  %93 = icmp slt i64 %90, %92
  br i1 %93, label %84, label %108, !llvm.loop !15

94:                                               ; preds = %80
  %95 = icmp sgt i32 %43, 0
  br i1 %95, label %96, label %108

96:                                               ; preds = %94
  %97 = trunc i64 %41 to i32
  %98 = sub i32 %97, %43
  %99 = sext i32 %98 to i64
  br label %100

100:                                              ; preds = %96, %100
  %101 = phi i64 [ %99, %96 ], [ %102, %100 ]
  %102 = add nsw i64 %101, 1
  %103 = sub nsw i64 %41, %102
  %104 = getelementptr inbounds [100 x [100 x i32]], [100 x [100 x i32]]* %3, i64 0, i64 %102, i64 %103
  %105 = load i32, i32* %104, align 4, !tbaa !5
  %106 = call i32 (i8*, ...) @printf(i8* nonnull dereferenceable(1) getelementptr inbounds ([4 x i8], [4 x i8]* @.str.2, i64 0, i64 0), i32 %105)
  %107 = icmp sgt i64 %41, %102
  br i1 %107, label %100, label %108, !llvm.loop !16

108:                                              ; preds = %69, %100, %84, %51, %61, %94, %82
  %109 = add nuw nsw i64 %41, 1
  %110 = add nuw nsw i32 %45, 1
  %111 = load i32, i32* %1, align 4, !tbaa !5
  %112 = load i32, i32* %2, align 4, !tbaa !5
  %113 = add i32 %111, -2
  %114 = add i32 %113, %112
  %115 = sext i32 %114 to i64
  %116 = icmp slt i64 %41, %115
  %117 = add nuw nsw i64 %42, 1
  br i1 %116, label %40, label %118, !llvm.loop !17

118:                                              ; preds = %108, %18
  call void @llvm.lifetime.end.p0i8(i64 40000, i8* nonnull %6) #3
  call void @llvm.lifetime.end.p0i8(i64 4, i8* nonnull %5) #3
  call void @llvm.lifetime.end.p0i8(i64 4, i8* nonnull %4) #3
  ret i32 0
}

; Function Attrs: argmemonly mustprogress nofree nosync nounwind willreturn
declare void @llvm.lifetime.start.p0i8(i64 immarg, i8* nocapture) #1

; Function Attrs: nofree nounwind
declare noundef i32 @__isoc99_scanf(i8* nocapture noundef readonly, ...) local_unnamed_addr #2

; Function Attrs: nofree nounwind
declare noundef i32 @printf(i8* nocapture noundef readonly, ...) local_unnamed_addr #2

; Function Attrs: argmemonly mustprogress nofree nosync nounwind willreturn
declare void @llvm.lifetime.end.p0i8(i64 immarg, i8* nocapture) #1


!llvm.module.flags = !{!0, !1, !2, !3}
!llvm.ident = !{!4}

!0 = !{i32 1, !"wchar_size", i32 4}
!1 = !{i32 7, !"PIC Level", i32 2}
!2 = !{i32 7, !"PIE Level", i32 2}
!3 = !{i32 7, !"uwtable", i32 1}
!4 = !{!"clang version 13.0.0"}
!5 = !{!6, !6, i64 0}
!6 = !{!"int", !7, i64 0}
!7 = !{!"omnipotent char", !8, i64 0}
!8 = !{!"Simple C/C++ TBAA"}
!9 = distinct !{!9, !10}
!10 = !{!"llvm.loop.mustprogress"}
!11 = distinct !{!11, !10, !12}
!12 = !{!"llvm.loop.unswitch.partial.disable"}
!13 = distinct !{!13, !10}
!14 = distinct !{!14, !10}
!15 = distinct !{!15, !10}
!16 = distinct !{!16, !10}
!17 = distinct !{!17, !10}
